target datalayout = "e-m:e-p270:32:32-p271:32:32-p272:64:64-i64:64-i128:128-f80:128-n8:16:32:64-S128"
target triple = "x86_64-pc-linux-gnu"

%struct.CipherSuiteInfo = type { ptr, ptr, i8, i8, i8 }

; Function Attrs: nounwind uwtable
define ptr @wolfSSL_get_cipher_list(i32 noundef %0) #0 {
  %2 = alloca ptr, align 8
  %3 = alloca i32, align 4
  %4 = alloca ptr, align 8
  %5 = alloca i32, align 4
  store i32 %0, ptr %3, align 4, !tbaa !7
  call void @llvm.lifetime.start.p0(i64 8, ptr %4) #9
  %6 = call ptr @GetCipherNames()
  store ptr %6, ptr %4, align 8, !tbaa !141
  %7 = load i32, ptr %3, align 4, !tbaa !7
  %8 = call i32 @GetCipherNamesSize()
  %9 = icmp sge i32 %7, %8
  br i1 %9, label %13, label %10

10:                                               ; preds = %1
  %11 = load i32, ptr %3, align 4, !tbaa !7
  %12 = icmp slt i32 %11, 0
  br i1 %12, label %13, label %14

13:                                               ; preds = %10, %1
  store ptr null, ptr %2, align 8
  store i32 1, ptr %5, align 4
  br label %21

14:                                               ; preds = %10
  %15 = load ptr, ptr %4, align 8, !tbaa !141
  %16 = load i32, ptr %3, align 4, !tbaa !7
  %17 = sext i32 %16 to i64
  %18 = getelementptr inbounds %struct.CipherSuiteInfo, ptr %15, i64 %17
  %19 = getelementptr inbounds nuw %struct.CipherSuiteInfo, ptr %18, i32 0, i32 0
  %20 = load ptr, ptr %19, align 8, !tbaa !143
  store ptr %20, ptr %2, align 8
  store i32 1, ptr %5, align 4
  br label %21

21:                                               ; preds = %14, %13
  call void @llvm.lifetime.end.p0(i64 8, ptr %4) #9
  %22 = load ptr, ptr %2, align 8
  ret ptr %22
}

; Function Attrs: nounwind uwtable
define ptr @wolfSSL_get_cipher_list_ex(ptr noundef %0, i32 noundef %1) #0 {
  %3 = alloca ptr, align 8
  %4 = alloca ptr, align 8
  %5 = alloca i32, align 4
  %6 = alloca ptr, align 8
  %7 = alloca i32, align 4
  store ptr %0, ptr %4, align 8, !tbaa !61
  store i32 %1, ptr %5, align 4, !tbaa !7
  %8 = load ptr, ptr %4, align 8, !tbaa !61
  %9 = icmp eq ptr %8, null
  br i1 %9, label %10, label %11

10:                                               ; preds = %2
  store ptr null, ptr %3, align 8
  br label %25

11:                                               ; preds = %2
  call void @llvm.lifetime.start.p0(i64 8, ptr %6) #9
  %12 = load ptr, ptr %4, align 8, !tbaa !61
  %13 = call ptr @wolfSSL_get_cipher_name_internal(ptr noundef %12)
  store ptr %13, ptr %6, align 8, !tbaa !21
  %14 = icmp ne ptr %13, null
  br i1 %14, label %15, label %21

15:                                               ; preds = %11
  %16 = load i32, ptr %5, align 4, !tbaa !7
  %17 = icmp eq i32 %16, 0
  br i1 %17, label %18, label %20

18:                                               ; preds = %15
  %19 = load ptr, ptr %6, align 8, !tbaa !21
  store ptr %19, ptr %3, align 8
  store i32 1, ptr %7, align 4
  br label %24

20:                                               ; preds = %15
  store ptr null, ptr %3, align 8
  store i32 1, ptr %7, align 4
  br label %24

21:                                               ; preds = %11
  %22 = load i32, ptr %5, align 4, !tbaa !7
  %23 = call ptr @wolfSSL_get_cipher_list(i32 noundef %22)
  store ptr %23, ptr %3, align 8
  store i32 1, ptr %7, align 4
  br label %24

24:                                               ; preds = %21, %20, %18
  call void @llvm.lifetime.end.p0(i64 8, ptr %6) #9
  br label %25

25:                                               ; preds = %24, %10
  %26 = load ptr, ptr %3, align 8
  ret ptr %26
}