; Function Attrs: nounwind uwtable
define ptr @wolfSSL_get_cipher_list_ex(ptr noundef %0, i32 noundef %1) local_unnamed_addr #0 {
  %3 = icmp eq ptr %0, null
  br i1 %3, label %wolfSSL_get_cipher_list.exit, label %4

4:                                                ; preds = %2
  %5 = tail call ptr @wolfSSL_get_cipher_name_internal(ptr noundef nonnull %0) #22
  %.not = icmp eq ptr %5, null
  br i1 %.not, label %8, label %6

6:                                                ; preds = %4
  %7 = icmp eq i32 %1, 0
  %. = select i1 %7, ptr %5, ptr null
  br label %wolfSSL_get_cipher_list.exit

8:                                                ; preds = %4
  %9 = tail call ptr @GetCipherNames() #22
  %10 = tail call i32 @GetCipherNamesSize() #22
  %11 = icmp sge i32 %1, %10
  %12 = icmp slt i32 %1, 0
  %or.cond.i = or i1 %12, %11
  br i1 %or.cond.i, label %wolfSSL_get_cipher_list.exit, label %13

13:                                               ; preds = %8
  %14 = zext nneg i32 %1 to i64
  %15 = getelementptr inbounds nuw %struct.CipherSuiteInfo, ptr %9, i64 %14
  %16 = load ptr, ptr %15, align 8, !tbaa !121
  br label %wolfSSL_get_cipher_list.exit

wolfSSL_get_cipher_list.exit:                     ; preds = %13, %8, %6, %2
  %.0 = phi ptr [ null, %2 ], [ %., %6 ], [ %16, %13 ], [ null, %8 ]
  ret ptr %.0
}